ccopy_reg
_reconstructor
p0
(csklearn.pipeline
Pipeline
p1
c__builtin__
object
p2
Ntp3
Rp4
(dp5
S'_sklearn_version'
p6
S'0.18.2'
p7
sS'steps'
p8
(lp9
(lp10
S'sc'
p11
ag0
(csklearn.preprocessing.data
StandardScaler
p12
g2
Ntp13
Rp14
(dp15
S'copy'
p16
I01
sg6
g7
sS'with_mean'
p17
I01
sS'with_std'
p18
I01
sbaa(lp19
S'clf'
p20
ag0
(csklearn.linear_model.logistic
LogisticRegression
p21
g2
Ntp22
Rp23
(dp24
S'warm_start'
p25
I00
sS'C'
p26
F0.0001
sS'n_jobs'
p27
I1
sS'verbose'
p28
I0
sS'fit_intercept'
p29
I01
sS'max_iter'
p30
I100
sS'class_weight'
p31
NsS'penalty'
p32
S'l2'
p33
sS'multi_class'
p34
S'ovr'
p35
sS'random_state'
p36
Nsg6
g7
sS'dual'
p37
I00
sS'tol'
p38
F0.0001
sS'solver'
p39
S'liblinear'
p40
sS'intercept_scaling'
p41
I1
sbaasb.