ccopy_reg
_reconstructor
p0
(csklearn.pipeline
Pipeline
p1
c__builtin__
object
p2
Ntp3
Rp4
(dp5
S'_sklearn_version'
p6
S'0.18.2'
p7
sS'steps'
p8
(lp9
(lp10
S'sc'
p11
ag0
(csklearn.preprocessing.data
MinMaxScaler
p12
g2
Ntp13
Rp14
(dp15
S'copy'
p16
I01
sg6
g7
sS'feature_range'
p17
(I0
I1
tp18
sbaa(lp19
S'kbest'
p20
ag0
(csklearn.feature_selection.univariate_selection
SelectKBest
p21
g2
Ntp22
Rp23
(dp24
S'k'
p25
I2
sg6
g7
sS'score_func'
p26
csklearn.feature_selection.univariate_selection
chi2
p27
sbaa(lp28
S'clf'
p29
ag0
(csklearn.neighbors.classification
KNeighborsClassifier
p30
g2
Ntp31
Rp32
(dp33
S'n_neighbors'
p34
I5
sS'n_jobs'
p35
I1
sS'algorithm'
p36
S'auto'
p37
sg6
g7
sS'metric'
p38
S'minkowski'
p39
sS'metric_params'
p40
NsS'p'
p41
I2
sS'radius'
p42
NsS'leaf_size'
p43
I30
sS'_fit_method'
p44
NsS'weights'
p45
S'uniform'
p46
sS'_tree'
p47
NsS'_fit_X'
p48
Nsbaasb.