(lp0
S'poi'
p1
aS'salary'
p2
aS'deferral_payments'
p3
aS'loan_advances'
p4
aS'bonus'
p5
aS'restricted_stock_deferred'
p6
aS'deferred_income'
p7
aS'expenses'
p8
aS'exercised_stock_options'
p9
aS'other'
p10
aS'long_term_incentive'
p11
aS'restricted_stock'
p12
aS'director_fees'
p13
aS'shared_receipt_with_poi'
p14
aS'std_from_poi'
p15
aS'std_to_poi'
p16
a.